target datalayout = "e-m:e-p270:32:32-p271:32:32-p272:64:64-i64:64-i128:128-f80:128-n8:16:32:64-S128"
target triple = "x86_64-pc-linux-gnu"

%"class.std::__shared_count" = type { ptr }
%"class.std::shared_ptr.2" = type { %"class.std::__shared_ptr.3" }
%"class.std::__shared_ptr.3" = type { ptr, %"class.std::__shared_count" }
%class.anon.5 = type { %"class.std::shared_ptr.2", ptr, ptr, ptr, ptr }

; Function Attrs: mustprogress nounwind uwtable
define linkonce_odr noundef ptr @_ZNKSt12__shared_ptrIN3gmx17StopConditionTimeELN9__gnu_cxx12_Lock_policyE2EE3getEv(ptr noundef nonnull align 8 dereferenceable(16) %0) #1 comdat align 2 {
  %2 = alloca ptr, align 8
  store ptr %0, ptr %2, align 8
  %3 = load ptr, ptr %2, align 8
  %4 = getelementptr inbounds %"class.std::__shared_ptr.3", ptr %3, i32 0, i32 0
  %5 = load ptr, ptr %4, align 8
  ret ptr %5
}

; Function Attrs: mustprogress nounwind uwtable
define linkonce_odr noundef ptr @_ZNKSt19__shared_ptr_accessIN3gmx17StopConditionTimeELN9__gnu_cxx12_Lock_policyE2ELb0ELb0EE6_M_getEv(ptr noundef nonnull align 1 dereferenceable(1) %0) #1 comdat align 2 {
  %2 = alloca ptr, align 8
  store ptr %0, ptr %2, align 8
  %3 = load ptr, ptr %2, align 8
  %4 = call noundef ptr @_ZNKSt12__shared_ptrIN3gmx17StopConditionTimeELN9__gnu_cxx12_Lock_policyE2EE3getEv(ptr noundef nonnull align 8 dereferenceable(16) %3) #11
  ret ptr %4
}

; Function Attrs: mustprogress nounwind uwtable
define linkonce_odr noundef ptr @_ZNKSt19__shared_ptr_accessIN3gmx17StopConditionTimeELN9__gnu_cxx12_Lock_policyE2ELb0ELb0EEptEv(ptr noundef nonnull align 1 dereferenceable(1) %0) #1 comdat align 2 {
  %2 = alloca ptr, align 8
  store ptr %0, ptr %2, align 8
  %3 = load ptr, ptr %2, align 8
  %4 = call noundef ptr @_ZNKSt19__shared_ptr_accessIN3gmx17StopConditionTimeELN9__gnu_cxx12_Lock_policyE2ELb0ELb0EE6_M_getEv(ptr noundef nonnull align 1 dereferenceable(1) %3) #11
  ret ptr %4
}

; Function Attrs: mustprogress uwtable
define internal noundef i32 @"_ZZN3gmx18StopHandlerBuilder16getStopHandlerMDENS_6compat8not_nullIPNS_16SimulationSignalEEEbbibifbP8_IO_FILERKlRKbP23gmx_walltime_accountingENK3$_1clEv"(ptr noundef nonnull align 8 dereferenceable(48) %0) #0 align 2 {
  %2 = alloca ptr, align 8
  store ptr %0, ptr %2, align 8
  %3 = load ptr, ptr %2, align 8
  %4 = getelementptr inbounds %class.anon.5, ptr %3, i32 0, i32 0
  %5 = call noundef ptr @_ZNKSt19__shared_ptr_accessIN3gmx17StopConditionTimeELN9__gnu_cxx12_Lock_policyE2ELb0ELb0EEptEv(ptr noundef nonnull align 1 dereferenceable(1) %4) #11
  %6 = getelementptr inbounds %class.anon.5, ptr %3, i32 0, i32 1
  %7 = load ptr, ptr %6, align 8
  %8 = load i8, ptr %7, align 1
  %9 = trunc i8 %8 to i1
  %10 = getelementptr inbounds %class.anon.5, ptr %3, i32 0, i32 2
  %11 = load ptr, ptr %10, align 8
  %12 = load i64, ptr %11, align 8
  %13 = getelementptr inbounds %class.anon.5, ptr %3, i32 0, i32 3
  %14 = load ptr, ptr %13, align 8
  %15 = getelementptr inbounds %class.anon.5, ptr %3, i32 0, i32 4
  %16 = load ptr, ptr %15, align 8
  %17 = call noundef i32 @_ZN3gmx17StopConditionTime9getSignalEblP8_IO_FILEP23gmx_walltime_accounting(ptr noundef nonnull align 4 dereferenceable(20) %5, i1 noundef zeroext %9, i64 noundef %12, ptr noundef %14, ptr noundef %16)
  ret i32 %17
}

; Function Attrs: mustprogress nounwind uwtable
define linkonce_odr noundef ptr @_ZNKSt9_Any_data9_M_accessEv(ptr noundef nonnull align 8 dereferenceable(16) %0) #1 comdat align 2 {
  %2 = alloca ptr, align 8
  store ptr %0, ptr %2, align 8
  %3 = load ptr, ptr %2, align 8
  %4 = getelementptr inbounds [16 x i8], ptr %3, i64 0, i64 0
  ret ptr %4
}

; Function Attrs: mustprogress uwtable
define internal noundef i32 @"_ZSt13__invoke_implIN3gmx10StopSignalERZNS0_18StopHandlerBuilder16getStopHandlerMDENS0_6compat8not_nullIPNS0_16SimulationSignalEEEbbibifbP8_IO_FILERKlRKbP23gmx_walltime_accountingE3$_1JEET_St14__invoke_otherOT0_DpOT1_"(ptr noundef nonnull align 8 dereferenceable(48) %0) #0 {
  %2 = alloca ptr, align 8
  store ptr %0, ptr %2, align 8
  %3 = load ptr, ptr %2, align 8
  %4 = call noundef i32 @"_ZZN3gmx18StopHandlerBuilder16getStopHandlerMDENS_6compat8not_nullIPNS_16SimulationSignalEEEbbibifbP8_IO_FILERKlRKbP23gmx_walltime_accountingENK3$_1clEv"(ptr noundef nonnull align 8 dereferenceable(48) %3)
  ret i32 %4
}

; Function Attrs: mustprogress nounwind uwtable
define internal noundef nonnull align 8 dereferenceable(8) ptr @"_ZNKSt9_Any_data9_M_accessIPZN3gmx18StopHandlerBuilder16getStopHandlerMDENS1_6compat8not_nullIPNS1_16SimulationSignalEEEbbibifbP8_IO_FILERKlRKbP23gmx_walltime_accountingE3$_1EERKT_v"(ptr noundef nonnull align 8 dereferenceable(16) %0) #1 align 2 {
  %2 = alloca ptr, align 8
  store ptr %0, ptr %2, align 8
  %3 = load ptr, ptr %2, align 8
  %4 = call noundef ptr @_ZNKSt9_Any_data9_M_accessEv(ptr noundef nonnull align 8 dereferenceable(16) %3) #11
  ret ptr %4
}

; Function Attrs: mustprogress uwtable
define internal noundef i32 @"_ZSt10__invoke_rIN3gmx10StopSignalERZNS0_18StopHandlerBuilder16getStopHandlerMDENS0_6compat8not_nullIPNS0_16SimulationSignalEEEbbibifbP8_IO_FILERKlRKbP23gmx_walltime_accountingE3$_1JEENSt9enable_ifIX16is_invocable_r_vIT_T0_DpT1_EESJ_E4typeEOSK_DpOSL_"(ptr noundef nonnull align 8 dereferenceable(48) %0) #0 {
  %2 = alloca ptr, align 8
  store ptr %0, ptr %2, align 8
  %3 = load ptr, ptr %2, align 8
  %4 = call noundef i32 @"_ZSt13__invoke_implIN3gmx10StopSignalERZNS0_18StopHandlerBuilder16getStopHandlerMDENS0_6compat8not_nullIPNS0_16SimulationSignalEEEbbibifbP8_IO_FILERKlRKbP23gmx_walltime_accountingE3$_1JEET_St14__invoke_otherOT0_DpOT1_"(ptr noundef nonnull align 8 dereferenceable(48) %3)
  ret i32 %4
}

; Function Attrs: mustprogress nounwind uwtable
define internal noundef ptr @"_ZNSt14_Function_base13_Base_managerIZN3gmx18StopHandlerBuilder16getStopHandlerMDENS1_6compat8not_nullIPNS1_16SimulationSignalEEEbbibifbP8_IO_FILERKlRKbP23gmx_walltime_accountingE3$_1E14_M_get_pointerERKSt9_Any_data"(ptr noundef nonnull align 8 dereferenceable(16) %0) #1 align 2 {
  %2 = alloca ptr, align 8
  store ptr %0, ptr %2, align 8
  %3 = load ptr, ptr %2, align 8
  %4 = call noundef nonnull align 8 dereferenceable(8) ptr @"_ZNKSt9_Any_data9_M_accessIPZN3gmx18StopHandlerBuilder16getStopHandlerMDENS1_6compat8not_nullIPNS1_16SimulationSignalEEEbbibifbP8_IO_FILERKlRKbP23gmx_walltime_accountingE3$_1EERKT_v"(ptr noundef nonnull align 8 dereferenceable(16) %3) #11
  %5 = load ptr, ptr %4, align 8
  ret ptr %5
}

; Function Attrs: mustprogress uwtable
define internal noundef i32 @"_ZNSt17_Function_handlerIFN3gmx10StopSignalEvEZNS0_18StopHandlerBuilder16getStopHandlerMDENS0_6compat8not_nullIPNS0_16SimulationSignalEEEbbibifbP8_IO_FILERKlRKbP23gmx_walltime_accountingE3$_1E9_M_invokeERKSt9_Any_data"(ptr noundef nonnull align 8 dereferenceable(16) %0) #0 align 2 {
  %2 = alloca ptr, align 8
  store ptr %0, ptr %2, align 8
  %3 = load ptr, ptr %2, align 8
  %4 = call noundef ptr @"_ZNSt14_Function_base13_Base_managerIZN3gmx18StopHandlerBuilder16getStopHandlerMDENS1_6compat8not_nullIPNS1_16SimulationSignalEEEbbibifbP8_IO_FILERKlRKbP23gmx_walltime_accountingE3$_1E14_M_get_pointerERKSt9_Any_data"(ptr noundef nonnull align 8 dereferenceable(16) %3) #11
  %5 = call noundef i32 @"_ZSt10__invoke_rIN3gmx10StopSignalERZNS0_18StopHandlerBuilder16getStopHandlerMDENS0_6compat8not_nullIPNS0_16SimulationSignalEEEbbibifbP8_IO_FILERKlRKbP23gmx_walltime_accountingE3$_1JEENSt9enable_ifIX16is_invocable_r_vIT_T0_DpT1_EESJ_E4typeEOSK_DpOSL_"(ptr noundef nonnull align 8 dereferenceable(48) %4)
  ret i32 %5
}