; Function Attrs: mustprogress uwtable
define internal noundef i32 @"_ZNSt17_Function_handlerIFN3gmx10StopSignalEvEZNS0_18StopHandlerBuilder16getStopHandlerMDENS0_6compat8not_nullIPNS0_16SimulationSignalEEEbbibifbP8_IO_FILERKlRKbP23gmx_walltime_accountingE3$_1E9_M_invokeERKSt9_Any_data"(ptr nocapture noundef nonnull readonly align 8 dereferenceable(16) %0) #2 align 2 {
  %.val = load ptr, ptr %0, align 8
  %2 = load ptr, ptr %.val, align 8
  %3 = getelementptr inbounds i8, ptr %.val, i64 16
  %4 = load ptr, ptr %3, align 8
  %5 = load i8, ptr %4, align 1
  %6 = trunc i8 %5 to i1
  %7 = getelementptr inbounds i8, ptr %.val, i64 24
  %8 = load ptr, ptr %7, align 8
  %9 = load i64, ptr %8, align 8
  %10 = getelementptr inbounds i8, ptr %.val, i64 32
  %11 = load ptr, ptr %10, align 8
  %12 = getelementptr inbounds i8, ptr %.val, i64 40
  %13 = load ptr, ptr %12, align 8
  %14 = tail call noundef i32 @_ZN3gmx17StopConditionTime9getSignalEblP8_IO_FILEP23gmx_walltime_accounting(ptr noundef nonnull align 4 dereferenceable(20) %2, i1 noundef zeroext %6, i64 noundef %9, ptr noundef %11, ptr noundef %13), !range !27
  ret i32 %14
}